
Eeprom_CharRdWr_Uart.elf:     file format elf32-avr

Sections:
Idx Name          Size      VMA       LMA       File off  Algn
  0 .text         00000212  00000000  00000000  00000074  2**1
                  CONTENTS, ALLOC, LOAD, READONLY, CODE
  1 .data         00000022  00800060  00000212  00000286  2**0
                  CONTENTS, ALLOC, LOAD, DATA
  2 .debug_aranges 00000080  00000000  00000000  000002a8  2**0
                  CONTENTS, READONLY, DEBUGGING
  3 .debug_pubnames 0000010a  00000000  00000000  00000328  2**0
                  CONTENTS, READONLY, DEBUGGING
  4 .debug_info   0000046f  00000000  00000000  00000432  2**0
                  CONTENTS, READONLY, DEBUGGING
  5 .debug_abbrev 000002ae  00000000  00000000  000008a1  2**0
                  CONTENTS, READONLY, DEBUGGING
  6 .debug_line   00000459  00000000  00000000  00000b4f  2**0
                  CONTENTS, READONLY, DEBUGGING
  7 .debug_frame  000000f0  00000000  00000000  00000fa8  2**2
                  CONTENTS, READONLY, DEBUGGING
  8 .debug_str    0000026c  00000000  00000000  00001098  2**0
                  CONTENTS, READONLY, DEBUGGING
  9 .debug_loc    00000160  00000000  00000000  00001304  2**0
                  CONTENTS, READONLY, DEBUGGING
 10 .debug_ranges 00000060  00000000  00000000  00001464  2**0
                  CONTENTS, READONLY, DEBUGGING

Disassembly of section .text:

00000000 <__vectors>:
   0:	0c 94 2a 00 	jmp	0x54	; 0x54 <__ctors_end>
   4:	0c 94 3f 00 	jmp	0x7e	; 0x7e <__bad_interrupt>
   8:	0c 94 3f 00 	jmp	0x7e	; 0x7e <__bad_interrupt>
   c:	0c 94 3f 00 	jmp	0x7e	; 0x7e <__bad_interrupt>
  10:	0c 94 3f 00 	jmp	0x7e	; 0x7e <__bad_interrupt>
  14:	0c 94 3f 00 	jmp	0x7e	; 0x7e <__bad_interrupt>
  18:	0c 94 3f 00 	jmp	0x7e	; 0x7e <__bad_interrupt>
  1c:	0c 94 3f 00 	jmp	0x7e	; 0x7e <__bad_interrupt>
  20:	0c 94 3f 00 	jmp	0x7e	; 0x7e <__bad_interrupt>
  24:	0c 94 3f 00 	jmp	0x7e	; 0x7e <__bad_interrupt>
  28:	0c 94 3f 00 	jmp	0x7e	; 0x7e <__bad_interrupt>
  2c:	0c 94 3f 00 	jmp	0x7e	; 0x7e <__bad_interrupt>
  30:	0c 94 3f 00 	jmp	0x7e	; 0x7e <__bad_interrupt>
  34:	0c 94 3f 00 	jmp	0x7e	; 0x7e <__bad_interrupt>
  38:	0c 94 3f 00 	jmp	0x7e	; 0x7e <__bad_interrupt>
  3c:	0c 94 3f 00 	jmp	0x7e	; 0x7e <__bad_interrupt>
  40:	0c 94 3f 00 	jmp	0x7e	; 0x7e <__bad_interrupt>
  44:	0c 94 3f 00 	jmp	0x7e	; 0x7e <__bad_interrupt>
  48:	0c 94 3f 00 	jmp	0x7e	; 0x7e <__bad_interrupt>
  4c:	0c 94 3f 00 	jmp	0x7e	; 0x7e <__bad_interrupt>
  50:	0c 94 3f 00 	jmp	0x7e	; 0x7e <__bad_interrupt>

00000054 <__ctors_end>:
  54:	11 24       	eor	r1, r1
  56:	1f be       	out	0x3f, r1	; 63
  58:	cf e5       	ldi	r28, 0x5F	; 95
  5a:	d4 e0       	ldi	r29, 0x04	; 4
  5c:	de bf       	out	0x3e, r29	; 62
  5e:	cd bf       	out	0x3d, r28	; 61

00000060 <__do_copy_data>:
  60:	10 e0       	ldi	r17, 0x00	; 0
  62:	a0 e6       	ldi	r26, 0x60	; 96
  64:	b0 e0       	ldi	r27, 0x00	; 0
  66:	e2 e1       	ldi	r30, 0x12	; 18
  68:	f2 e0       	ldi	r31, 0x02	; 2
  6a:	02 c0       	rjmp	.+4      	; 0x70 <.do_copy_data_start>

0000006c <.do_copy_data_loop>:
  6c:	05 90       	lpm	r0, Z+
  6e:	0d 92       	st	X+, r0

00000070 <.do_copy_data_start>:
  70:	a2 38       	cpi	r26, 0x82	; 130
  72:	b1 07       	cpc	r27, r17
  74:	d9 f7       	brne	.-10     	; 0x6c <.do_copy_data_loop>
  76:	0e 94 83 00 	call	0x106	; 0x106 <main>
  7a:	0c 94 07 01 	jmp	0x20e	; 0x20e <_exit>

0000007e <__bad_interrupt>:
  7e:	0c 94 00 00 	jmp	0	; 0x0 <__vectors>

00000082 <DELAY_sec>:
    milliseconds can be achieved.
 */
void
_delay_loop_2(uint16_t __count)
{
	__asm__ volatile (
  82:	40 e9       	ldi	r20, 0x90	; 144
  84:	51 e0       	ldi	r21, 0x01	; 1
  86:	09 c0       	rjmp	.+18     	; 0x9a <DELAY_sec+0x18>
      It generates a delay of 1sec for each count,
      if 10 is passed as the argument then it generates delay of 10sec
***************************************************************************************************/
void DELAY_sec(uint16_t var_delaySecCount_u16)
 {
	 while(var_delaySecCount_u16!=0)
  88:	20 e1       	ldi	r18, 0x10	; 16
  8a:	37 e2       	ldi	r19, 0x27	; 39
  8c:	fa 01       	movw	r30, r20
  8e:	31 97       	sbiw	r30, 0x01	; 1
  90:	f1 f7       	brne	.-4      	; 0x8e <DELAY_sec+0xc>
		__ticks = (uint16_t) (__ms * 10.0);
		while(__ticks)
		{
			// wait 1/10 ms
			_delay_loop_2(((F_CPU) / 4e3) / 10);
			__ticks --;
  92:	21 50       	subi	r18, 0x01	; 1
  94:	30 40       	sbci	r19, 0x00	; 0
		__ticks = 1;
	else if (__tmp > 65535)
	{
		//	__ticks = requested delay in 1/10 ms
		__ticks = (uint16_t) (__ms * 10.0);
		while(__ticks)
  96:	d1 f7       	brne	.-12     	; 0x8c <DELAY_sec+0xa>
	  {
	     DELAY_ms(1000);	      /* DELAY_ms is called to generate 1sec delay */
		 var_delaySecCount_u16--;
  98:	01 97       	sbiw	r24, 0x01	; 1
      It generates a delay of 1sec for each count,
      if 10 is passed as the argument then it generates delay of 10sec
***************************************************************************************************/
void DELAY_sec(uint16_t var_delaySecCount_u16)
 {
	 while(var_delaySecCount_u16!=0)
  9a:	00 97       	sbiw	r24, 0x00	; 0
  9c:	a9 f7       	brne	.-22     	; 0x88 <DELAY_sec+0x6>
	  {
	     DELAY_ms(1000);	      /* DELAY_ms is called to generate 1sec delay */
		 var_delaySecCount_u16--;
		}
  }
  9e:	08 95       	ret

000000a0 <EEPROM_WriteByte>:
 * description: This function is used to write the data at specified EEPROM_address..

 **************************************************************************************************/
void EEPROM_WriteByte(uint16_t var_eepromAddress_u16, uint8_t var_eepromData_u8)
{
	while(util_IsBitSet(EECR,EEWE)); // Wait for completion of previous write.
  a0:	e1 99       	sbic	0x1c, 1	; 28
  a2:	fe cf       	rjmp	.-4      	; 0xa0 <EEPROM_WriteByte>
	                                 // EEWE will be cleared by hardware once Eeprom write is completed.

	EEAR = var_eepromAddress_u16;  //Load the eeprom address and data
  a4:	9f bb       	out	0x1f, r25	; 31
  a6:	8e bb       	out	0x1e, r24	; 30
	EEDR = var_eepromData_u8;
  a8:	6d bb       	out	0x1d, r22	; 29

	util_BitSet(EECR,EEMWE);    // Eeprom Master Write Enable
  aa:	e2 9a       	sbi	0x1c, 2	; 28
	util_BitSet(EECR,EEWE);     // Start eeprom write by setting EEWE
  ac:	e1 9a       	sbi	0x1c, 1	; 28
}
  ae:	08 95       	ret

000000b0 <EEPROM_ReadByte>:

 * description: This function is used to read the data from specified EEPROM_address.        
 ***************************************************************************************************/
uint8_t EEPROM_ReadByte(uint16_t var_eepromAddress_u16)
{
	while(util_IsBitSet(EECR,EEWE));  //Wait for completion of previous write if any.
  b0:	e1 99       	sbic	0x1c, 1	; 28
  b2:	fe cf       	rjmp	.-4      	; 0xb0 <EEPROM_ReadByte>

	EEAR = var_eepromAddress_u16;    //Load the address from where the data needs to be read.
  b4:	9f bb       	out	0x1f, r25	; 31
  b6:	8e bb       	out	0x1e, r24	; 30
	util_BitSet(EECR,EERE);   // start eeprom read by setting EERE
  b8:	e0 9a       	sbi	0x1c, 0	; 28

	return EEDR;             // Return data from data register
  ba:	8d b3       	in	r24, 0x1d	; 29
}
  bc:	08 95       	ret

000000be <EEPROM_WriteString>:

   NOTE: Null char is also written into the eeprom.
 ***************************************************************************************************/
#if ( ENABLE_EEPROM_WriteString == 1)
void EEPROM_WriteString(uint16_t var_eepromAddress_u16, char *ptr_stringPointer_u8)
{
  be:	0f 93       	push	r16
  c0:	1f 93       	push	r17
  c2:	cf 93       	push	r28
  c4:	df 93       	push	r29
  c6:	8c 01       	movw	r16, r24
  c8:	eb 01       	movw	r28, r22

	do
	{
		EEPROM_WriteByte(var_eepromAddress_u16,*ptr_stringPointer_u8); //Write a byte from RAM to EEPROM
  ca:	c8 01       	movw	r24, r16
  cc:	68 81       	ld	r22, Y
  ce:	0e 94 50 00 	call	0xa0	; 0xa0 <EEPROM_WriteByte>
		ptr_stringPointer_u8++;								//Increment the RAM Address
		var_eepromAddress_u16++;								//Increment the Eeprom Address
  d2:	0f 5f       	subi	r16, 0xFF	; 255
  d4:	1f 4f       	sbci	r17, 0xFF	; 255
	}while(*(ptr_stringPointer_u8-1) !=0);
  d6:	89 91       	ld	r24, Y+
  d8:	88 23       	and	r24, r24
  da:	b9 f7       	brne	.-18     	; 0xca <EEPROM_WriteString+0xc>
}
  dc:	df 91       	pop	r29
  de:	cf 91       	pop	r28
  e0:	1f 91       	pop	r17
  e2:	0f 91       	pop	r16
  e4:	08 95       	ret

000000e6 <EEPROM_ReadString>:
 * description:This function is used to Read a String from specified EEPROM_address.
           The string read from eeprom will be copied to specified buffer along with NULL character
 ***************************************************************************************************/
#if ( ENABLE_EEPROM_ReadString == 1)
void EEPROM_ReadString(uint16_t var_eepromAddress_u16, char *ptr_destStringAddress_u8)
{
  e6:	9c 01       	movw	r18, r24
  e8:	fb 01       	movw	r30, r22

 * description: This function is used to read the data from specified EEPROM_address.        
 ***************************************************************************************************/
uint8_t EEPROM_ReadByte(uint16_t var_eepromAddress_u16)
{
	while(util_IsBitSet(EECR,EEWE));  //Wait for completion of previous write if any.
  ea:	e1 99       	sbic	0x1c, 1	; 28
  ec:	fe cf       	rjmp	.-4      	; 0xea <EEPROM_ReadString+0x4>

	EEAR = var_eepromAddress_u16;    //Load the address from where the data needs to be read.
  ee:	3f bb       	out	0x1f, r19	; 31
  f0:	2e bb       	out	0x1e, r18	; 30
	util_BitSet(EECR,EERE);   // start eeprom read by setting EERE
  f2:	e0 9a       	sbi	0x1c, 0	; 28

	return EEDR;             // Return data from data register
  f4:	8d b3       	in	r24, 0x1d	; 29
	char eeprom_data;

	do
	{
		eeprom_data = EEPROM_ReadByte(var_eepromAddress_u16); //Read a byte from EEPROM to RAM
		*ptr_destStringAddress_u8 = eeprom_data;			 //Copy the data into String Buffer
  f6:	80 83       	st	Z, r24
		ptr_destStringAddress_u8++;						 //Increment the RAM Address
		var_eepromAddress_u16++;							 //Increment the Eeprom Address
	}while(eeprom_data!=0);
  f8:	88 23       	and	r24, r24
  fa:	21 f0       	breq	.+8      	; 0x104 <EEPROM_ReadString+0x1e>

	do
	{
		eeprom_data = EEPROM_ReadByte(var_eepromAddress_u16); //Read a byte from EEPROM to RAM
		*ptr_destStringAddress_u8 = eeprom_data;			 //Copy the data into String Buffer
		ptr_destStringAddress_u8++;						 //Increment the RAM Address
  fc:	31 96       	adiw	r30, 0x01	; 1
		var_eepromAddress_u16++;							 //Increment the Eeprom Address
  fe:	2f 5f       	subi	r18, 0xFF	; 255
 100:	3f 4f       	sbci	r19, 0xFF	; 255
 102:	f3 cf       	rjmp	.-26     	; 0xea <EEPROM_ReadString+0x4>
 104:	08 95       	ret

00000106 <main>:
{
   unsigned int eeprom_address=0x00;
   unsigned char  write_char = 'X', read_char;

  /* Initialize the Uart before Transmitting/Receiving any data */
    UART_Init(9600);												  
 106:	60 e8       	ldi	r22, 0x80	; 128
 108:	75 e2       	ldi	r23, 0x25	; 37
 10a:	80 e0       	ldi	r24, 0x00	; 0
 10c:	90 e0       	ldi	r25, 0x00	; 0
 10e:	0e 94 cb 00 	call	0x196	; 0x196 <UART_Init>
 
   while(1)
    {
	   	   UART_TxString("\n\rEeprom Write: ");      //Print the message on UART
 112:	80 e6       	ldi	r24, 0x60	; 96
 114:	90 e0       	ldi	r25, 0x00	; 0
 116:	0e 94 db 00 	call	0x1b6	; 0x1b6 <UART_TxString>
		   UART_TxChar(write_char);			         //Print the char to be written 
 11a:	88 e5       	ldi	r24, 0x58	; 88
 11c:	0e 94 d7 00 	call	0x1ae	; 0x1ae <UART_TxChar>
		   EEPROM_WriteByte(eeprom_address,write_char);	// Write the data at memoryLocation	0x00
 120:	80 e0       	ldi	r24, 0x00	; 0
 122:	90 e0       	ldi	r25, 0x00	; 0
 124:	68 e5       	ldi	r22, 0x58	; 88
 126:	0e 94 50 00 	call	0xa0	; 0xa0 <EEPROM_WriteByte>

		   
		   UART_TxString("  Eeprom Read: ");            //Print the message on UART
 12a:	81 e7       	ldi	r24, 0x71	; 113
 12c:	90 e0       	ldi	r25, 0x00	; 0
 12e:	0e 94 db 00 	call	0x1b6	; 0x1b6 <UART_TxString>
		   read_char = EEPROM_ReadByte(eeprom_address);	// Read the data from memoryLocation 0x00
 132:	80 e0       	ldi	r24, 0x00	; 0
 134:	90 e0       	ldi	r25, 0x00	; 0
 136:	0e 94 58 00 	call	0xb0	; 0xb0 <EEPROM_ReadByte>
		   UART_TxChar(read_char);			            //Print the read data 
 13a:	0e 94 d7 00 	call	0x1ae	; 0x1ae <UART_TxChar>
 13e:	e9 cf       	rjmp	.-46     	; 0x112 <main+0xc>

00000140 <UART_SetBaudRate>:
                 the default baudrate of 9600 is set.

		    Refer uart.h file for Supported range of baud rates.
***************************************************************************************************/
void UART_SetBaudRate(uint32_t var_baudRate_u32)
{
 140:	9b 01       	movw	r18, r22
 142:	ac 01       	movw	r20, r24
	uint16_t RegValue;

	if((var_baudRate_u32 >= C_MinBaudRate_U32) && (var_baudRate_u32<=C_MaxBaudRate_U32))
 144:	dc 01       	movw	r26, r24
 146:	cb 01       	movw	r24, r22
 148:	80 56       	subi	r24, 0x60	; 96
 14a:	99 40       	sbci	r25, 0x09	; 9
 14c:	a0 40       	sbci	r26, 0x00	; 0
 14e:	b0 40       	sbci	r27, 0x00	; 0
 150:	81 5a       	subi	r24, 0xA1	; 161
 152:	98 4b       	sbci	r25, 0xB8	; 184
 154:	a1 40       	sbci	r26, 0x01	; 1
 156:	b0 40       	sbci	r27, 0x00	; 0
 158:	18 f0       	brcs	.+6      	; 0x160 <UART_SetBaudRate+0x20>
 15a:	27 e6       	ldi	r18, 0x67	; 103
 15c:	30 e0       	ldi	r19, 0x00	; 0
 15e:	18 c0       	rjmp	.+48     	; 0x190 <UART_SetBaudRate+0x50>
	{
		/* Check if the requested baudate is within range,
	     If yes then calculate the value to be loaded into baud rate generator. */
		RegValue = M_GetBaudRateGeneratorValue(var_baudRate_u32);
 160:	60 e8       	ldi	r22, 0x80	; 128
 162:	74 e8       	ldi	r23, 0x84	; 132
 164:	8e e1       	ldi	r24, 0x1E	; 30
 166:	90 e0       	ldi	r25, 0x00	; 0
 168:	62 1b       	sub	r22, r18
 16a:	73 0b       	sbc	r23, r19
 16c:	84 0b       	sbc	r24, r20
 16e:	95 0b       	sbc	r25, r21
 170:	f3 e0       	ldi	r31, 0x03	; 3
 172:	66 0f       	add	r22, r22
 174:	77 1f       	adc	r23, r23
 176:	88 1f       	adc	r24, r24
 178:	99 1f       	adc	r25, r25
 17a:	fa 95       	dec	r31
 17c:	d1 f7       	brne	.-12     	; 0x172 <UART_SetBaudRate+0x32>
 17e:	e4 e0       	ldi	r30, 0x04	; 4
 180:	22 0f       	add	r18, r18
 182:	33 1f       	adc	r19, r19
 184:	44 1f       	adc	r20, r20
 186:	55 1f       	adc	r21, r21
 188:	ea 95       	dec	r30
 18a:	d1 f7       	brne	.-12     	; 0x180 <UART_SetBaudRate+0x40>
 18c:	0e 94 e5 00 	call	0x1ca	; 0x1ca <__udivmodsi4>
	{
		/*	 Invalid baudrate requested, hence set it to default baudrate of 9600 */
		RegValue = M_GetBaudRateGeneratorValue(9600);
	}

	UBRRL = util_ExtractByte0to8(RegValue);
 190:	29 b9       	out	0x09, r18	; 9
	UBRRH = util_ExtractByte8to16(RegValue);
 192:	30 bd       	out	0x20, r19	; 32
}
 194:	08 95       	ret

00000196 <UART_Init>:

		    Refer uart.h file for Supported(range) baud rates.		
***************************************************************************************************/
void UART_Init(uint32_t var_baudRate_u32)
{
	UCSRB= (1<<RXEN) | (1<<TXEN);                  // Enable Receiver and Transmitter
 196:	28 e1       	ldi	r18, 0x18	; 24
 198:	2a b9       	out	0x0a, r18	; 10
	UCSRC= (1<<URSEL) | (1<<UCSZ1) | (1<<UCSZ0);   // Asynchronous mode 8-bit data and 1-stop bit
 19a:	26 e8       	ldi	r18, 0x86	; 134
 19c:	20 bd       	out	0x20, r18	; 32
	UCSRA= 0x00;                                   // Clear the UASRT status register
 19e:	1b b8       	out	0x0b, r1	; 11
	UART_SetBaudRate(var_baudRate_u32);
 1a0:	0e 94 a0 00 	call	0x140	; 0x140 <UART_SetBaudRate>
}
 1a4:	08 95       	ret

000001a6 <UART_RxChar>:
 * description :This function is used to receive a char from UART module.
                It waits till a char is received and returns it after reception.
***************************************************************************************************/
char UART_RxChar()
{
	while(util_IsBitCleared(UCSRA,RXC));  // Wait till the data is received
 1a6:	5f 9b       	sbis	0x0b, 7	; 11
 1a8:	fe cf       	rjmp	.-4      	; 0x1a6 <UART_RxChar>
	return(UDR);                          // return the received char
 1aa:	8c b1       	in	r24, 0x0c	; 12
}
 1ac:	08 95       	ret

000001ae <UART_TxChar>:

 * description  :This function is used to transmit a char through UART module.
***************************************************************************************************/
void UART_TxChar(char var_uartData_u8)
{
	while(util_IsBitCleared(UCSRA,UDRE)); // Wait till Transmitter(UDR) register becomes Empty
 1ae:	5d 9b       	sbis	0x0b, 5	; 11
 1b0:	fe cf       	rjmp	.-4      	; 0x1ae <UART_TxChar>
	UDR =var_uartData_u8;                              // Load the data to be transmitted
 1b2:	8c b9       	out	0x0c, r24	; 12
}
 1b4:	08 95       	ret

000001b6 <UART_TxString>:
               1.The ptr_stringPointer_u8 points to the first char of the string
                    and traverses till the end(NULL CHAR) and transmits a char each time
***************************************************************************************************/
#if (Enable_UART_TxString==1)
void UART_TxString(char *ptr_stringPointer_u8)
{
 1b6:	fc 01       	movw	r30, r24
 1b8:	04 c0       	rjmp	.+8      	; 0x1c2 <UART_TxString+0xc>

 * description  :This function is used to transmit a char through UART module.
***************************************************************************************************/
void UART_TxChar(char var_uartData_u8)
{
	while(util_IsBitCleared(UCSRA,UDRE)); // Wait till Transmitter(UDR) register becomes Empty
 1ba:	5d 9b       	sbis	0x0b, 5	; 11
 1bc:	fe cf       	rjmp	.-4      	; 0x1ba <UART_TxString+0x4>
***************************************************************************************************/
#if (Enable_UART_TxString==1)
void UART_TxString(char *ptr_stringPointer_u8)
{
	while(*ptr_stringPointer_u8)
		UART_TxChar(*ptr_stringPointer_u8++);// Loop through the string and transmit char by char
 1be:	31 96       	adiw	r30, 0x01	; 1
 * description  :This function is used to transmit a char through UART module.
***************************************************************************************************/
void UART_TxChar(char var_uartData_u8)
{
	while(util_IsBitCleared(UCSRA,UDRE)); // Wait till Transmitter(UDR) register becomes Empty
	UDR =var_uartData_u8;                              // Load the data to be transmitted
 1c0:	8c b9       	out	0x0c, r24	; 12
                    and traverses till the end(NULL CHAR) and transmits a char each time
***************************************************************************************************/
#if (Enable_UART_TxString==1)
void UART_TxString(char *ptr_stringPointer_u8)
{
	while(*ptr_stringPointer_u8)
 1c2:	80 81       	ld	r24, Z
 1c4:	88 23       	and	r24, r24
 1c6:	c9 f7       	brne	.-14     	; 0x1ba <UART_TxString+0x4>
		UART_TxChar(*ptr_stringPointer_u8++);// Loop through the string and transmit char by char
}
 1c8:	08 95       	ret

000001ca <__udivmodsi4>:
 1ca:	a1 e2       	ldi	r26, 0x21	; 33
 1cc:	1a 2e       	mov	r1, r26
 1ce:	aa 1b       	sub	r26, r26
 1d0:	bb 1b       	sub	r27, r27
 1d2:	fd 01       	movw	r30, r26
 1d4:	0d c0       	rjmp	.+26     	; 0x1f0 <__udivmodsi4_ep>

000001d6 <__udivmodsi4_loop>:
 1d6:	aa 1f       	adc	r26, r26
 1d8:	bb 1f       	adc	r27, r27
 1da:	ee 1f       	adc	r30, r30
 1dc:	ff 1f       	adc	r31, r31
 1de:	a2 17       	cp	r26, r18
 1e0:	b3 07       	cpc	r27, r19
 1e2:	e4 07       	cpc	r30, r20
 1e4:	f5 07       	cpc	r31, r21
 1e6:	20 f0       	brcs	.+8      	; 0x1f0 <__udivmodsi4_ep>
 1e8:	a2 1b       	sub	r26, r18
 1ea:	b3 0b       	sbc	r27, r19
 1ec:	e4 0b       	sbc	r30, r20
 1ee:	f5 0b       	sbc	r31, r21

000001f0 <__udivmodsi4_ep>:
 1f0:	66 1f       	adc	r22, r22
 1f2:	77 1f       	adc	r23, r23
 1f4:	88 1f       	adc	r24, r24
 1f6:	99 1f       	adc	r25, r25
 1f8:	1a 94       	dec	r1
 1fa:	69 f7       	brne	.-38     	; 0x1d6 <__udivmodsi4_loop>
 1fc:	60 95       	com	r22
 1fe:	70 95       	com	r23
 200:	80 95       	com	r24
 202:	90 95       	com	r25
 204:	9b 01       	movw	r18, r22
 206:	ac 01       	movw	r20, r24
 208:	bd 01       	movw	r22, r26
 20a:	cf 01       	movw	r24, r30
 20c:	08 95       	ret

0000020e <_exit>:
 20e:	f8 94       	cli

00000210 <__stop_program>:
 210:	ff cf       	rjmp	.-2      	; 0x210 <__stop_program>
