
tx_char.elf:     file format elf32-avr

Sections:
Idx Name          Size      VMA       LMA       File off  Algn
  0 .text         00000152  00000000  00000000  00000054  2**1
                  CONTENTS, ALLOC, LOAD, READONLY, CODE
  1 .debug_aranges 00000040  00000000  00000000  000001a6  2**0
                  CONTENTS, READONLY, DEBUGGING
  2 .debug_pubnames 00000082  00000000  00000000  000001e6  2**0
                  CONTENTS, READONLY, DEBUGGING
  3 .debug_info   000001c1  00000000  00000000  00000268  2**0
                  CONTENTS, READONLY, DEBUGGING
  4 .debug_abbrev 00000106  00000000  00000000  00000429  2**0
                  CONTENTS, READONLY, DEBUGGING
  5 .debug_line   0000018b  00000000  00000000  0000052f  2**0
                  CONTENTS, READONLY, DEBUGGING
  6 .debug_frame  00000080  00000000  00000000  000006bc  2**2
                  CONTENTS, READONLY, DEBUGGING
  7 .debug_str    00000116  00000000  00000000  0000073c  2**0
                  CONTENTS, READONLY, DEBUGGING
  8 .debug_loc    000000b8  00000000  00000000  00000852  2**0
                  CONTENTS, READONLY, DEBUGGING
  9 .debug_ranges 00000018  00000000  00000000  0000090a  2**0
                  CONTENTS, READONLY, DEBUGGING

Disassembly of section .text:

00000000 <__vectors>:
   0:	0c 94 2a 00 	jmp	0x54	; 0x54 <__ctors_end>
   4:	0c 94 34 00 	jmp	0x68	; 0x68 <__bad_interrupt>
   8:	0c 94 34 00 	jmp	0x68	; 0x68 <__bad_interrupt>
   c:	0c 94 34 00 	jmp	0x68	; 0x68 <__bad_interrupt>
  10:	0c 94 34 00 	jmp	0x68	; 0x68 <__bad_interrupt>
  14:	0c 94 34 00 	jmp	0x68	; 0x68 <__bad_interrupt>
  18:	0c 94 34 00 	jmp	0x68	; 0x68 <__bad_interrupt>
  1c:	0c 94 34 00 	jmp	0x68	; 0x68 <__bad_interrupt>
  20:	0c 94 34 00 	jmp	0x68	; 0x68 <__bad_interrupt>
  24:	0c 94 34 00 	jmp	0x68	; 0x68 <__bad_interrupt>
  28:	0c 94 34 00 	jmp	0x68	; 0x68 <__bad_interrupt>
  2c:	0c 94 34 00 	jmp	0x68	; 0x68 <__bad_interrupt>
  30:	0c 94 34 00 	jmp	0x68	; 0x68 <__bad_interrupt>
  34:	0c 94 34 00 	jmp	0x68	; 0x68 <__bad_interrupt>
  38:	0c 94 34 00 	jmp	0x68	; 0x68 <__bad_interrupt>
  3c:	0c 94 34 00 	jmp	0x68	; 0x68 <__bad_interrupt>
  40:	0c 94 34 00 	jmp	0x68	; 0x68 <__bad_interrupt>
  44:	0c 94 34 00 	jmp	0x68	; 0x68 <__bad_interrupt>
  48:	0c 94 34 00 	jmp	0x68	; 0x68 <__bad_interrupt>
  4c:	0c 94 34 00 	jmp	0x68	; 0x68 <__bad_interrupt>
  50:	0c 94 34 00 	jmp	0x68	; 0x68 <__bad_interrupt>

00000054 <__ctors_end>:
  54:	11 24       	eor	r1, r1
  56:	1f be       	out	0x3f, r1	; 63
  58:	cf e5       	ldi	r28, 0x5F	; 95
  5a:	d4 e0       	ldi	r29, 0x04	; 4
  5c:	de bf       	out	0x3e, r29	; 62
  5e:	cd bf       	out	0x3d, r28	; 61
  60:	0e 94 36 00 	call	0x6c	; 0x6c <main>
  64:	0c 94 a7 00 	jmp	0x14e	; 0x14e <_exit>

00000068 <__bad_interrupt>:
  68:	0c 94 00 00 	jmp	0	; 0x0 <__vectors>

0000006c <main>:
/* start the main program */
void main() 
{
 
 /* Initialize the UART before Transmitting/Receiving any data */
    UART_Init(9600);
  6c:	60 e8       	ldi	r22, 0x80	; 128
  6e:	75 e2       	ldi	r23, 0x25	; 37
  70:	80 e0       	ldi	r24, 0x00	; 0
  72:	90 e0       	ldi	r25, 0x00	; 0
  74:	0e 94 6b 00 	call	0xd6	; 0xd6 <UART_Init>

   while(1)
    {
        /*Transmit a char indefinitely at 9600 baud rate */
         UART_TxChar('a');
  78:	81 e6       	ldi	r24, 0x61	; 97
  7a:	0e 94 77 00 	call	0xee	; 0xee <UART_TxChar>
  7e:	fc cf       	rjmp	.-8      	; 0x78 <main+0xc>

00000080 <UART_SetBaudRate>:
                 the default baudrate of 9600 is set.

		    Refer uart.h file for Supported range of baud rates.
***************************************************************************************************/
void UART_SetBaudRate(uint32_t var_baudRate_u32)
{
  80:	9b 01       	movw	r18, r22
  82:	ac 01       	movw	r20, r24
	uint16_t RegValue;

	if((var_baudRate_u32 >= C_MinBaudRate_U32) && (var_baudRate_u32<=C_MaxBaudRate_U32))
  84:	dc 01       	movw	r26, r24
  86:	cb 01       	movw	r24, r22
  88:	80 56       	subi	r24, 0x60	; 96
  8a:	99 40       	sbci	r25, 0x09	; 9
  8c:	a0 40       	sbci	r26, 0x00	; 0
  8e:	b0 40       	sbci	r27, 0x00	; 0
  90:	81 5a       	subi	r24, 0xA1	; 161
  92:	98 4b       	sbci	r25, 0xB8	; 184
  94:	a1 40       	sbci	r26, 0x01	; 1
  96:	b0 40       	sbci	r27, 0x00	; 0
  98:	18 f0       	brcs	.+6      	; 0xa0 <UART_SetBaudRate+0x20>
  9a:	27 e6       	ldi	r18, 0x67	; 103
  9c:	30 e0       	ldi	r19, 0x00	; 0
  9e:	18 c0       	rjmp	.+48     	; 0xd0 <UART_SetBaudRate+0x50>
	{
		/* Check if the requested baudate is within range,
	     If yes then calculate the value to be loaded into baud rate generator. */
		RegValue = M_GetBaudRateGeneratorValue(var_baudRate_u32);
  a0:	60 e8       	ldi	r22, 0x80	; 128
  a2:	74 e8       	ldi	r23, 0x84	; 132
  a4:	8e e1       	ldi	r24, 0x1E	; 30
  a6:	90 e0       	ldi	r25, 0x00	; 0
  a8:	62 1b       	sub	r22, r18
  aa:	73 0b       	sbc	r23, r19
  ac:	84 0b       	sbc	r24, r20
  ae:	95 0b       	sbc	r25, r21
  b0:	f3 e0       	ldi	r31, 0x03	; 3
  b2:	66 0f       	add	r22, r22
  b4:	77 1f       	adc	r23, r23
  b6:	88 1f       	adc	r24, r24
  b8:	99 1f       	adc	r25, r25
  ba:	fa 95       	dec	r31
  bc:	d1 f7       	brne	.-12     	; 0xb2 <UART_SetBaudRate+0x32>
  be:	e4 e0       	ldi	r30, 0x04	; 4
  c0:	22 0f       	add	r18, r18
  c2:	33 1f       	adc	r19, r19
  c4:	44 1f       	adc	r20, r20
  c6:	55 1f       	adc	r21, r21
  c8:	ea 95       	dec	r30
  ca:	d1 f7       	brne	.-12     	; 0xc0 <UART_SetBaudRate+0x40>
  cc:	0e 94 85 00 	call	0x10a	; 0x10a <__udivmodsi4>
	{
		/*	 Invalid baudrate requested, hence set it to default baudrate of 9600 */
		RegValue = M_GetBaudRateGeneratorValue(9600);
	}

	UBRRL = util_ExtractByte0to8(RegValue);
  d0:	29 b9       	out	0x09, r18	; 9
	UBRRH = util_ExtractByte8to16(RegValue);
  d2:	30 bd       	out	0x20, r19	; 32
}
  d4:	08 95       	ret

000000d6 <UART_Init>:

		    Refer uart.h file for Supported(range) baud rates.		
***************************************************************************************************/
void UART_Init(uint32_t var_baudRate_u32)
{
	UCSRB= (1<<RXEN) | (1<<TXEN);                  // Enable Receiver and Transmitter
  d6:	28 e1       	ldi	r18, 0x18	; 24
  d8:	2a b9       	out	0x0a, r18	; 10
	UCSRC= (1<<URSEL) | (1<<UCSZ1) | (1<<UCSZ0);   // Asynchronous mode 8-bit data and 1-stop bit
  da:	26 e8       	ldi	r18, 0x86	; 134
  dc:	20 bd       	out	0x20, r18	; 32
	UCSRA= 0x00;                                   // Clear the UASRT status register
  de:	1b b8       	out	0x0b, r1	; 11
	UART_SetBaudRate(var_baudRate_u32);
  e0:	0e 94 40 00 	call	0x80	; 0x80 <UART_SetBaudRate>
}
  e4:	08 95       	ret

000000e6 <UART_RxChar>:
 * description :This function is used to receive a char from UART module.
                It waits till a char is received and returns it after reception.
***************************************************************************************************/
char UART_RxChar()
{
	while(util_IsBitCleared(UCSRA,RXC));  // Wait till the data is received
  e6:	5f 9b       	sbis	0x0b, 7	; 11
  e8:	fe cf       	rjmp	.-4      	; 0xe6 <UART_RxChar>
	return(UDR);                          // return the received char
  ea:	8c b1       	in	r24, 0x0c	; 12
}
  ec:	08 95       	ret

000000ee <UART_TxChar>:

 * description  :This function is used to transmit a char through UART module.
***************************************************************************************************/
void UART_TxChar(char var_uartData_u8)
{
	while(util_IsBitCleared(UCSRA,UDRE)); // Wait till Transmitter(UDR) register becomes Empty
  ee:	5d 9b       	sbis	0x0b, 5	; 11
  f0:	fe cf       	rjmp	.-4      	; 0xee <UART_TxChar>
	UDR =var_uartData_u8;                              // Load the data to be transmitted
  f2:	8c b9       	out	0x0c, r24	; 12
}
  f4:	08 95       	ret

000000f6 <UART_TxString>:
               1.The ptr_stringPointer_u8 points to the first char of the string
                    and traverses till the end(NULL CHAR) and transmits a char each time
***************************************************************************************************/
#if (Enable_UART_TxString==1)
void UART_TxString(char *ptr_stringPointer_u8)
{
  f6:	fc 01       	movw	r30, r24
  f8:	04 c0       	rjmp	.+8      	; 0x102 <UART_TxString+0xc>

 * description  :This function is used to transmit a char through UART module.
***************************************************************************************************/
void UART_TxChar(char var_uartData_u8)
{
	while(util_IsBitCleared(UCSRA,UDRE)); // Wait till Transmitter(UDR) register becomes Empty
  fa:	5d 9b       	sbis	0x0b, 5	; 11
  fc:	fe cf       	rjmp	.-4      	; 0xfa <UART_TxString+0x4>
***************************************************************************************************/
#if (Enable_UART_TxString==1)
void UART_TxString(char *ptr_stringPointer_u8)
{
	while(*ptr_stringPointer_u8)
		UART_TxChar(*ptr_stringPointer_u8++);// Loop through the string and transmit char by char
  fe:	31 96       	adiw	r30, 0x01	; 1
 * description  :This function is used to transmit a char through UART module.
***************************************************************************************************/
void UART_TxChar(char var_uartData_u8)
{
	while(util_IsBitCleared(UCSRA,UDRE)); // Wait till Transmitter(UDR) register becomes Empty
	UDR =var_uartData_u8;                              // Load the data to be transmitted
 100:	8c b9       	out	0x0c, r24	; 12
                    and traverses till the end(NULL CHAR) and transmits a char each time
***************************************************************************************************/
#if (Enable_UART_TxString==1)
void UART_TxString(char *ptr_stringPointer_u8)
{
	while(*ptr_stringPointer_u8)
 102:	80 81       	ld	r24, Z
 104:	88 23       	and	r24, r24
 106:	c9 f7       	brne	.-14     	; 0xfa <UART_TxString+0x4>
		UART_TxChar(*ptr_stringPointer_u8++);// Loop through the string and transmit char by char
}
 108:	08 95       	ret

0000010a <__udivmodsi4>:
 10a:	a1 e2       	ldi	r26, 0x21	; 33
 10c:	1a 2e       	mov	r1, r26
 10e:	aa 1b       	sub	r26, r26
 110:	bb 1b       	sub	r27, r27
 112:	fd 01       	movw	r30, r26
 114:	0d c0       	rjmp	.+26     	; 0x130 <__udivmodsi4_ep>

00000116 <__udivmodsi4_loop>:
 116:	aa 1f       	adc	r26, r26
 118:	bb 1f       	adc	r27, r27
 11a:	ee 1f       	adc	r30, r30
 11c:	ff 1f       	adc	r31, r31
 11e:	a2 17       	cp	r26, r18
 120:	b3 07       	cpc	r27, r19
 122:	e4 07       	cpc	r30, r20
 124:	f5 07       	cpc	r31, r21
 126:	20 f0       	brcs	.+8      	; 0x130 <__udivmodsi4_ep>
 128:	a2 1b       	sub	r26, r18
 12a:	b3 0b       	sbc	r27, r19
 12c:	e4 0b       	sbc	r30, r20
 12e:	f5 0b       	sbc	r31, r21

00000130 <__udivmodsi4_ep>:
 130:	66 1f       	adc	r22, r22
 132:	77 1f       	adc	r23, r23
 134:	88 1f       	adc	r24, r24
 136:	99 1f       	adc	r25, r25
 138:	1a 94       	dec	r1
 13a:	69 f7       	brne	.-38     	; 0x116 <__udivmodsi4_loop>
 13c:	60 95       	com	r22
 13e:	70 95       	com	r23
 140:	80 95       	com	r24
 142:	90 95       	com	r25
 144:	9b 01       	movw	r18, r22
 146:	ac 01       	movw	r20, r24
 148:	bd 01       	movw	r22, r26
 14a:	cf 01       	movw	r24, r30
 14c:	08 95       	ret

0000014e <_exit>:
 14e:	f8 94       	cli

00000150 <__stop_program>:
 150:	ff cf       	rjmp	.-2      	; 0x150 <__stop_program>
